target datalayout = "e-m:e-p270:32:32-p271:32:32-p272:64:64-i64:64-i128:128-f80:128-n8:16:32:64-S128"
target triple = "x86_64-pc-linux-gnu"

%"class.icu_77::UnicodeString" = type { %"class.icu_77::Replaceable", %"union.icu_77::UnicodeString::StackBufferOrFields" }
%"class.icu_77::Replaceable" = type { %"class.icu_77::UObject" }
%"class.icu_77::UObject" = type { ptr }
%"union.icu_77::UnicodeString::StackBufferOrFields" = type { %struct.anon.0, [32 x i8] }
%struct.anon.0 = type { i16, i32, i32, ptr }

@_ZN6icu_77L10MAX_OFFSETE = internal global i32 86400000, align 4

; Function Attrs: inlinehint mustprogress nounwind uwtable
define linkonce_odr noundef i32 @_ZNK6icu_7713UnicodeString14getShortLengthEv(ptr noundef nonnull align 8 dereferenceable(64) %0) #2 comdat align 2 {
  %2 = alloca ptr, align 8
  store ptr %0, ptr %2, align 8, !tbaa !33
  %3 = load ptr, ptr %2, align 8
  %4 = getelementptr inbounds nuw %"class.icu_77::UnicodeString", ptr %3, i32 0, i32 1
  %5 = getelementptr inbounds nuw %struct.anon.0, ptr %4, i32 0, i32 0
  %6 = load i16, ptr %5, align 8, !tbaa !37
  %7 = sext i16 %6 to i32
  %8 = ashr i32 %7, 5
  ret i32 %8
}

; Function Attrs: inlinehint mustprogress nounwind uwtable
define linkonce_odr noundef signext i8 @_ZNK6icu_7713UnicodeString14hasShortLengthEv(ptr noundef nonnull align 8 dereferenceable(64) %0) #2 comdat align 2 {
  %2 = alloca ptr, align 8
  store ptr %0, ptr %2, align 8, !tbaa !33
  %3 = load ptr, ptr %2, align 8
  %4 = getelementptr inbounds nuw %"class.icu_77::UnicodeString", ptr %3, i32 0, i32 1
  %5 = getelementptr inbounds nuw %struct.anon.0, ptr %4, i32 0, i32 0
  %6 = load i16, ptr %5, align 8, !tbaa !37
  %7 = sext i16 %6 to i32
  %8 = icmp sge i32 %7, 0
  %9 = zext i1 %8 to i8
  ret i8 %9
}

; Function Attrs: inlinehint mustprogress uwtable
define linkonce_odr noundef i32 @_ZNK6icu_7713UnicodeString6lengthEv(ptr noundef nonnull align 8 dereferenceable(64) %0) #3 comdat align 2 {
  %2 = alloca ptr, align 8
  store ptr %0, ptr %2, align 8, !tbaa !33
  %3 = load ptr, ptr %2, align 8
  %4 = call noundef signext i8 @_ZNK6icu_7713UnicodeString14hasShortLengthEv(ptr noundef nonnull align 8 dereferenceable(64) %3)
  %5 = icmp ne i8 %4, 0
  br i1 %5, label %6, label %8

6:                                                ; preds = %1
  %7 = call noundef i32 @_ZNK6icu_7713UnicodeString14getShortLengthEv(ptr noundef nonnull align 8 dereferenceable(64) %3)
  br label %12

8:                                                ; preds = %1
  %9 = getelementptr inbounds nuw %"class.icu_77::UnicodeString", ptr %3, i32 0, i32 1
  %10 = getelementptr inbounds nuw %struct.anon.0, ptr %9, i32 0, i32 1
  %11 = load i32, ptr %10, align 4, !tbaa !37
  br label %12

12:                                               ; preds = %8, %6
  %13 = phi i32 [ %7, %6 ], [ %11, %8 ]
  ret i32 %13
}

; Function Attrs: inlinehint mustprogress uwtable
define linkonce_odr noundef nonnull align 8 dereferenceable(64) ptr @_ZN6icu_7713UnicodeString6appendEDs(ptr noundef nonnull align 8 dereferenceable(64) %0, i16 noundef zeroext %1) #3 comdat align 2 {
  %3 = alloca ptr, align 8
  %4 = alloca i16, align 2
  store ptr %0, ptr %3, align 8, !tbaa !33
  store i16 %1, ptr %4, align 2, !tbaa !35
  %5 = load ptr, ptr %3, align 8
  %6 = call noundef nonnull align 8 dereferenceable(64) ptr @_ZN6icu_7713UnicodeString8doAppendEPKDsii(ptr noundef nonnull align 8 dereferenceable(64) %5, ptr noundef %4, i32 noundef 0, i32 noundef 1)
  ret ptr %6
}

; Function Attrs: inlinehint mustprogress uwtable
define linkonce_odr noundef nonnull align 8 dereferenceable(64) ptr @_ZN6icu_7713UnicodeString5setToEDs(ptr noundef nonnull align 8 dereferenceable(64) %0, i16 noundef zeroext %1) #3 comdat align 2 {
  %3 = alloca ptr, align 8
  %4 = alloca i16, align 2
  store ptr %0, ptr %3, align 8, !tbaa !33
  store i16 %1, ptr %4, align 2, !tbaa !35
  %5 = load ptr, ptr %3, align 8
  call void @_ZN6icu_7713UnicodeString7unBogusEv(ptr noundef nonnull align 8 dereferenceable(64) %5)
  %6 = call noundef i32 @_ZNK6icu_7713UnicodeString6lengthEv(ptr noundef nonnull align 8 dereferenceable(64) %5)
  %7 = call noundef nonnull align 8 dereferenceable(64) ptr @_ZN6icu_7713UnicodeString9doReplaceEiiPKDsii(ptr noundef nonnull align 8 dereferenceable(64) %5, i32 noundef 0, i32 noundef %6, ptr noundef %4, i32 noundef 0, i32 noundef 1)
  ret ptr %7
}

; Function Attrs: inlinehint mustprogress nounwind uwtable
define internal noundef signext i8 @_ZL9U_FAILURE10UErrorCode(i32 noundef %0) #2 {
  %2 = alloca i32, align 4
  store i32 %0, ptr %2, align 4, !tbaa !15
  %3 = load i32, ptr %2, align 4, !tbaa !15
  %4 = icmp sgt i32 %3, 0
  %5 = zext i1 %4 to i8
  ret i8 %5
}

; Function Attrs: mustprogress uwtable
define noundef nonnull align 8 dereferenceable(64) ptr @_ZNK6icu_7714TimeZoneFormat19formatOffsetISO8601EiaaaaRNS_13UnicodeStringER10UErrorCode(ptr noundef nonnull align 8 dereferenceable(1024) %0, i32 noundef %1, i8 noundef signext %2, i8 noundef signext %3, i8 noundef signext %4, i8 noundef signext %5, ptr noundef nonnull align 8 dereferenceable(64) %6, ptr noundef nonnull align 4 dereferenceable(4) %7) #1 align 2 {
  %9 = alloca ptr, align 8
  %10 = alloca ptr, align 8
  %11 = alloca i32, align 4
  %12 = alloca i8, align 1
  %13 = alloca i8, align 1
  %14 = alloca i8, align 1
  %15 = alloca i8, align 1
  %16 = alloca ptr, align 8
  %17 = alloca ptr, align 8
  %18 = alloca i32, align 4
  %19 = alloca i32, align 4
  %20 = alloca i32, align 4
  %21 = alloca i32, align 4
  %22 = alloca i16, align 2
  %23 = alloca [3 x i32], align 4
  %24 = alloca i32, align 4
  %25 = alloca i16, align 2
  %26 = alloca i32, align 4
  %27 = alloca i32, align 4
  store ptr %0, ptr %10, align 8, !tbaa !39
  store i32 %1, ptr %11, align 4, !tbaa !14
  store i8 %2, ptr %12, align 1, !tbaa !37
  store i8 %3, ptr %13, align 1, !tbaa !37
  store i8 %4, ptr %14, align 1, !tbaa !37
  store i8 %5, ptr %15, align 1, !tbaa !37
  store ptr %6, ptr %16, align 8, !tbaa !33
  store ptr %7, ptr %17, align 8, !tbaa !22
  %28 = load ptr, ptr %17, align 8, !tbaa !22
  %29 = load i32, ptr %28, align 4, !tbaa !15
  %30 = call noundef signext i8 @_ZL9U_FAILURE10UErrorCode(i32 noundef %29)
  %31 = icmp ne i8 %30, 0
  br i1 %31, label %32, label %35

32:                                               ; preds = %8
  %33 = load ptr, ptr %16, align 8, !tbaa !33
  call void @_ZN6icu_7713UnicodeString10setToBogusEv(ptr noundef nonnull align 8 dereferenceable(64) %33)
  %34 = load ptr, ptr %16, align 8, !tbaa !33
  store ptr %34, ptr %9, align 8
  br label %174

35:                                               ; preds = %8
  call void @llvm.lifetime.start.p0(i64 4, ptr %18) #15
  %36 = load i32, ptr %11, align 4, !tbaa !14
  %37 = icmp slt i32 %36, 0
  br i1 %37, label %38, label %41

38:                                               ; preds = %35
  %39 = load i32, ptr %11, align 4, !tbaa !14
  %40 = sub nsw i32 0, %39
  br label %43

41:                                               ; preds = %35
  %42 = load i32, ptr %11, align 4, !tbaa !14
  br label %43

43:                                               ; preds = %41, %38
  %44 = phi i32 [ %40, %38 ], [ %42, %41 ]
  store i32 %44, ptr %18, align 4, !tbaa !14
  %45 = load i8, ptr %13, align 1, !tbaa !37
  %46 = icmp ne i8 %45, 0
  br i1 %46, label %47, label %60

47:                                               ; preds = %43
  %48 = load i32, ptr %18, align 4, !tbaa !14
  %49 = icmp slt i32 %48, 1000
  br i1 %49, label %56, label %50

50:                                               ; preds = %47
  %51 = load i8, ptr %15, align 1, !tbaa !37
  %52 = icmp ne i8 %51, 0
  br i1 %52, label %53, label %60

53:                                               ; preds = %50
  %54 = load i32, ptr %18, align 4, !tbaa !14
  %55 = icmp slt i32 %54, 60000
  br i1 %55, label %56, label %60

56:                                               ; preds = %53, %47
  %57 = load ptr, ptr %16, align 8, !tbaa !33
  %58 = call noundef nonnull align 8 dereferenceable(64) ptr @_ZN6icu_7713UnicodeString5setToEDs(ptr noundef nonnull align 8 dereferenceable(64) %57, i16 noundef zeroext 90)
  %59 = load ptr, ptr %16, align 8, !tbaa !33
  store ptr %59, ptr %9, align 8
  store i32 1, ptr %19, align 4
  br label %173

60:                                               ; preds = %53, %50, %43
  call void @llvm.lifetime.start.p0(i64 4, ptr %20) #15
  %61 = load i8, ptr %14, align 1, !tbaa !37
  %62 = icmp ne i8 %61, 0
  %63 = select i1 %62, i32 0, i32 1
  store i32 %63, ptr %20, align 4, !tbaa !89
  call void @llvm.lifetime.start.p0(i64 4, ptr %21) #15
  %64 = load i8, ptr %15, align 1, !tbaa !37
  %65 = icmp ne i8 %64, 0
  %66 = select i1 %65, i32 1, i32 2
  store i32 %66, ptr %21, align 4, !tbaa !89
  call void @llvm.lifetime.start.p0(i64 2, ptr %22) #15
  %67 = load i8, ptr %12, align 1, !tbaa !37
  %68 = icmp ne i8 %67, 0
  %69 = select i1 %68, i32 0, i32 58
  %70 = trunc i32 %69 to i16
  store i16 %70, ptr %22, align 2, !tbaa !35
  %71 = load i32, ptr %18, align 4, !tbaa !14
  %72 = load i32, ptr @_ZN6icu_77L10MAX_OFFSETE, align 4, !tbaa !14
  %73 = icmp sge i32 %71, %72
  br i1 %73, label %74, label %78

74:                                               ; preds = %60
  %75 = load ptr, ptr %16, align 8, !tbaa !33
  call void @_ZN6icu_7713UnicodeString10setToBogusEv(ptr noundef nonnull align 8 dereferenceable(64) %75)
  %76 = load ptr, ptr %17, align 8, !tbaa !22
  store i32 1, ptr %76, align 4, !tbaa !15
  %77 = load ptr, ptr %16, align 8, !tbaa !33
  store ptr %77, ptr %9, align 8
  store i32 1, ptr %19, align 4
  br label %172

78:                                               ; preds = %60
  call void @llvm.lifetime.start.p0(i64 12, ptr %23) #15
  %79 = load i32, ptr %18, align 4, !tbaa !14
  %80 = sdiv i32 %79, 3600000
  %81 = getelementptr inbounds [3 x i32], ptr %23, i64 0, i64 0
  store i32 %80, ptr %81, align 4, !tbaa !14
  %82 = load i32, ptr %18, align 4, !tbaa !14
  %83 = srem i32 %82, 3600000
  store i32 %83, ptr %18, align 4, !tbaa !14
  %84 = load i32, ptr %18, align 4, !tbaa !14
  %85 = sdiv i32 %84, 60000
  %86 = getelementptr inbounds [3 x i32], ptr %23, i64 0, i64 1
  store i32 %85, ptr %86, align 4, !tbaa !14
  %87 = load i32, ptr %18, align 4, !tbaa !14
  %88 = srem i32 %87, 60000
  store i32 %88, ptr %18, align 4, !tbaa !14
  %89 = load i32, ptr %18, align 4, !tbaa !14
  %90 = sdiv i32 %89, 1000
  %91 = getelementptr inbounds [3 x i32], ptr %23, i64 0, i64 2
  store i32 %90, ptr %91, align 4, !tbaa !14
  call void @llvm.lifetime.start.p0(i64 4, ptr %24) #15
  %92 = load i32, ptr %21, align 4, !tbaa !89
  store i32 %92, ptr %24, align 4, !tbaa !14
  br label %93

93:                                               ; preds = %104, %78
  %94 = load i32, ptr %24, align 4, !tbaa !14
  %95 = load i32, ptr %20, align 4, !tbaa !89
  %96 = icmp sgt i32 %94, %95
  br i1 %96, label %97, label %107

97:                                               ; preds = %93
  %98 = load i32, ptr %24, align 4, !tbaa !14
  %99 = sext i32 %98 to i64
  %100 = getelementptr inbounds [3 x i32], ptr %23, i64 0, i64 %99
  %101 = load i32, ptr %100, align 4, !tbaa !14
  %102 = icmp ne i32 %101, 0
  br i1 %102, label %103, label %104

103:                                              ; preds = %97
  br label %107

104:                                              ; preds = %97
  %105 = load i32, ptr %24, align 4, !tbaa !14
  %106 = add nsw i32 %105, -1
  store i32 %106, ptr %24, align 4, !tbaa !14
  br label %93, !llvm.loop !143

107:                                              ; preds = %103, %93
  call void @llvm.lifetime.start.p0(i64 2, ptr %25) #15
  store i16 43, ptr %25, align 2, !tbaa !35
  %108 = load i32, ptr %11, align 4, !tbaa !14
  %109 = icmp slt i32 %108, 0
  br i1 %109, label %110, label %129

110:                                              ; preds = %107
  call void @llvm.lifetime.start.p0(i64 4, ptr %26) #15
  store i32 0, ptr %26, align 4, !tbaa !14
  br label %111

111:                                              ; preds = %124, %110
  %112 = load i32, ptr %26, align 4, !tbaa !14
  %113 = load i32, ptr %24, align 4, !tbaa !14
  %114 = icmp sle i32 %112, %113
  br i1 %114, label %116, label %115

115:                                              ; preds = %111
  store i32 4, ptr %19, align 4
  br label %127

116:                                              ; preds = %111
  %117 = load i32, ptr %26, align 4, !tbaa !14
  %118 = sext i32 %117 to i64
  %119 = getelementptr inbounds [3 x i32], ptr %23, i64 0, i64 %118
  %120 = load i32, ptr %119, align 4, !tbaa !14
  %121 = icmp ne i32 %120, 0
  br i1 %121, label %122, label %123

122:                                              ; preds = %116
  store i16 45, ptr %25, align 2, !tbaa !35
  store i32 4, ptr %19, align 4
  br label %127

123:                                              ; preds = %116
  br label %124

124:                                              ; preds = %123
  %125 = load i32, ptr %26, align 4, !tbaa !14
  %126 = add nsw i32 %125, 1
  store i32 %126, ptr %26, align 4, !tbaa !14
  br label %111, !llvm.loop !144

127:                                              ; preds = %122, %115
  call void @llvm.lifetime.end.p0(i64 4, ptr %26) #15
  br label %128

128:                                              ; preds = %127
  br label %129

129:                                              ; preds = %128, %107
  %130 = load ptr, ptr %16, align 8, !tbaa !33
  %131 = load i16, ptr %25, align 2, !tbaa !35
  %132 = call noundef nonnull align 8 dereferenceable(64) ptr @_ZN6icu_7713UnicodeString5setToEDs(ptr noundef nonnull align 8 dereferenceable(64) %130, i16 noundef zeroext %131)
  call void @llvm.lifetime.start.p0(i64 4, ptr %27) #15
  store i32 0, ptr %27, align 4, !tbaa !14
  br label %133

133:                                              ; preds = %167, %129
  %134 = load i32, ptr %27, align 4, !tbaa !14
  %135 = load i32, ptr %24, align 4, !tbaa !14
  %136 = icmp sle i32 %134, %135
  br i1 %136, label %138, label %137

137:                                              ; preds = %133
  store i32 7, ptr %19, align 4
  call void @llvm.lifetime.end.p0(i64 4, ptr %27) #15
  br label %170

138:                                              ; preds = %133
  %139 = load i16, ptr %22, align 2, !tbaa !35
  %140 = icmp ne i16 %139, 0
  br i1 %140, label %141, label %148

141:                                              ; preds = %138
  %142 = load i32, ptr %27, align 4, !tbaa !14
  %143 = icmp ne i32 %142, 0
  br i1 %143, label %144, label %148

144:                                              ; preds = %141
  %145 = load ptr, ptr %16, align 8, !tbaa !33
  %146 = load i16, ptr %22, align 2, !tbaa !35
  %147 = call noundef nonnull align 8 dereferenceable(64) ptr @_ZN6icu_7713UnicodeString6appendEDs(ptr noundef nonnull align 8 dereferenceable(64) %145, i16 noundef zeroext %146)
  br label %148

148:                                              ; preds = %144, %141, %138
  %149 = load ptr, ptr %16, align 8, !tbaa !33
  %150 = load i32, ptr %27, align 4, !tbaa !14
  %151 = sext i32 %150 to i64
  %152 = getelementptr inbounds [3 x i32], ptr %23, i64 0, i64 %151
  %153 = load i32, ptr %152, align 4, !tbaa !14
  %154 = sdiv i32 %153, 10
  %155 = add nsw i32 48, %154
  %156 = trunc i32 %155 to i16
  %157 = call noundef nonnull align 8 dereferenceable(64) ptr @_ZN6icu_7713UnicodeString6appendEDs(ptr noundef nonnull align 8 dereferenceable(64) %149, i16 noundef zeroext %156)
  %158 = load ptr, ptr %16, align 8, !tbaa !33
  %159 = load i32, ptr %27, align 4, !tbaa !14
  %160 = sext i32 %159 to i64
  %161 = getelementptr inbounds [3 x i32], ptr %23, i64 0, i64 %160
  %162 = load i32, ptr %161, align 4, !tbaa !14
  %163 = srem i32 %162, 10
  %164 = add nsw i32 48, %163
  %165 = trunc i32 %164 to i16
  %166 = call noundef nonnull align 8 dereferenceable(64) ptr @_ZN6icu_7713UnicodeString6appendEDs(ptr noundef nonnull align 8 dereferenceable(64) %158, i16 noundef zeroext %165)
  br label %167

167:                                              ; preds = %148
  %168 = load i32, ptr %27, align 4, !tbaa !14
  %169 = add nsw i32 %168, 1
  store i32 %169, ptr %27, align 4, !tbaa !14
  br label %133, !llvm.loop !145

170:                                              ; preds = %137
  %171 = load ptr, ptr %16, align 8, !tbaa !33
  store ptr %171, ptr %9, align 8
  store i32 1, ptr %19, align 4
  call void @llvm.lifetime.end.p0(i64 2, ptr %25) #15
  call void @llvm.lifetime.end.p0(i64 4, ptr %24) #15
  call void @llvm.lifetime.end.p0(i64 12, ptr %23) #15
  br label %172

172:                                              ; preds = %170, %74
  call void @llvm.lifetime.end.p0(i64 2, ptr %22) #15
  call void @llvm.lifetime.end.p0(i64 4, ptr %21) #15
  call void @llvm.lifetime.end.p0(i64 4, ptr %20) #15
  br label %173

173:                                              ; preds = %172, %56
  call void @llvm.lifetime.end.p0(i64 4, ptr %18) #15
  br label %174

174:                                              ; preds = %173, %32
  %175 = load ptr, ptr %9, align 8
  ret ptr %175
}