; Function Attrs: mustprogress uwtable
define noundef nonnull align 8 dereferenceable(64) ptr @_ZNK6icu_7714TimeZoneFormat19formatOffsetISO8601EiaaaaRNS_13UnicodeStringER10UErrorCode(ptr nonnull readnone align 8 captures(none) %0, i32 noundef %1, i8 noundef signext %2, i8 noundef signext %3, i8 noundef signext %4, i8 noundef signext %5, ptr noundef nonnull returned align 8 dereferenceable(64) %6, ptr noundef nonnull align 4 captures(none) dereferenceable(4) %7) local_unnamed_addr #1 align 2 {
  %9 = alloca i16, align 2
  %10 = alloca i16, align 2
  %11 = alloca i16, align 2
  %12 = alloca i16, align 2
  %13 = alloca i16, align 2
  %14 = alloca [3 x i32], align 4
  %15 = load i32, ptr %7, align 4, !tbaa !13
  %16 = icmp slt i32 %15, 1
  br i1 %16, label %18, label %17

17:                                               ; preds = %8
  tail call void @_ZN6icu_7713UnicodeString10setToBogusEv(ptr noundef nonnull align 8 dereferenceable(64) %6)
  br label %93

18:                                               ; preds = %8
  %19 = icmp sgt i32 %1, -1
  %20 = tail call i32 @llvm.abs.i32(i32 %1, i1 true)
  %.not59 = icmp eq i8 %3, 0
  br i1 %.not59, label %36, label %21

21:                                               ; preds = %18
  %22 = icmp samesign ult i32 %20, 1000
  br i1 %22, label %26, label %23

23:                                               ; preds = %21
  %24 = icmp ne i8 %5, 0
  %25 = icmp samesign ult i32 %20, 60000
  %or.cond = select i1 %24, i1 %25, i1 false
  br i1 %or.cond, label %26, label %36

26:                                               ; preds = %23, %21
  call void @llvm.lifetime.start.p0(i64 2, ptr nonnull %13)
  store i16 90, ptr %13, align 2, !tbaa !24
  tail call void @_ZN6icu_7713UnicodeString7unBogusEv(ptr noundef nonnull align 8 dereferenceable(64) %6)
  %27 = getelementptr inbounds nuw i8, ptr %6, i64 8
  %28 = load i16, ptr %27, align 8, !tbaa !23
  %29 = icmp slt i16 %28, 0
  %30 = ashr i16 %28, 5
  %31 = sext i16 %30 to i32
  %32 = getelementptr inbounds nuw i8, ptr %6, i64 12
  %33 = load i32, ptr %32, align 4
  %34 = select i1 %29, i32 %33, i32 %31
  %35 = call noundef nonnull align 8 dereferenceable(64) ptr @_ZN6icu_7713UnicodeString9doReplaceEiiPKDsii(ptr noundef nonnull align 8 dereferenceable(64) %6, i32 noundef 0, i32 noundef %34, ptr noundef nonnull %13, i32 noundef 0, i32 noundef 1)
  call void @llvm.lifetime.end.p0(i64 2, ptr nonnull %13)
  br label %93

36:                                               ; preds = %23, %18
  %.not60 = icmp eq i8 %4, 0
  %37 = zext i1 %.not60 to i32
  %.not62 = icmp eq i8 %2, 0
  %38 = icmp samesign ugt i32 %20, 86399999
  br i1 %38, label %39, label %40

39:                                               ; preds = %36
  tail call void @_ZN6icu_7713UnicodeString10setToBogusEv(ptr noundef nonnull align 8 dereferenceable(64) %6)
  store i32 1, ptr %7, align 4, !tbaa !13
  br label %93

40:                                               ; preds = %36
  %.not61 = icmp eq i8 %5, 0
  %41 = select i1 %.not61, i32 2, i32 1
  call void @llvm.lifetime.start.p0(i64 12, ptr nonnull %14) #22
  %42 = udiv i32 %20, 3600000
  store i32 %42, ptr %14, align 4, !tbaa !12
  %43 = urem i32 %20, 3600000
  %44 = udiv i32 %43, 60000
  %45 = getelementptr inbounds nuw i8, ptr %14, i64 4
  store i32 %44, ptr %45, align 4, !tbaa !12
  %46 = urem i32 %43, 60000
  %.lhs.trunc = trunc nuw i32 %46 to i16
  %47 = udiv i16 %.lhs.trunc, 1000
  %.zext = zext nneg i16 %47 to i32
  %48 = getelementptr inbounds nuw i8, ptr %14, i64 8
  store i32 %.zext, ptr %48, align 4, !tbaa !12
  %49 = icmp samesign ugt i32 %41, %37
  br i1 %49, label %.lr.ph, label %._crit_edge

.lr.ph:                                           ; preds = %40, %53
  %.05367 = phi i32 [ %54, %53 ], [ %41, %40 ]
  %50 = zext nneg i32 %.05367 to i64
  %51 = getelementptr inbounds nuw [3 x i32], ptr %14, i64 0, i64 %50
  %52 = load i32, ptr %51, align 4, !tbaa !12
  %.not63 = icmp eq i32 %52, 0
  br i1 %.not63, label %53, label %._crit_edge

53:                                               ; preds = %.lr.ph
  %54 = add nsw i32 %.05367, -1
  %55 = icmp sgt i32 %54, %37
  br i1 %55, label %.lr.ph, label %._crit_edge, !llvm.loop !90

._crit_edge:                                      ; preds = %53, %.lr.ph, %40
  %.053.lcssa = phi i32 [ 1, %40 ], [ %.05367, %.lr.ph ], [ %37, %53 ]
  %.not6470 = icmp slt i32 %.053.lcssa, 0
  %or.cond81 = or i1 %19, %.not6470
  br i1 %or.cond81, label %.loopexit, label %.lr.ph72.preheader

.lr.ph72.preheader:                               ; preds = %._crit_edge
  %56 = add nuw nsw i32 %.053.lcssa, 1
  %wide.trip.count = zext nneg i32 %56 to i64
  br label %.lr.ph72

57:                                               ; preds = %.lr.ph72
  %indvars.iv.next = add nuw nsw i64 %indvars.iv, 1
  %exitcond.not = icmp eq i64 %indvars.iv.next, %wide.trip.count
  br i1 %exitcond.not, label %.loopexit, label %.lr.ph72, !llvm.loop !91

.lr.ph72:                                         ; preds = %.lr.ph72.preheader, %57
  %indvars.iv = phi i64 [ 0, %.lr.ph72.preheader ], [ %indvars.iv.next, %57 ]
  %58 = getelementptr inbounds nuw [3 x i32], ptr %14, i64 0, i64 %indvars.iv
  %59 = load i32, ptr %58, align 4, !tbaa !12
  %.not65 = icmp eq i32 %59, 0
  br i1 %.not65, label %57, label %.loopexit

.loopexit:                                        ; preds = %.lr.ph72, %57, %._crit_edge
  %.052 = phi i16 [ 43, %._crit_edge ], [ 45, %.lr.ph72 ], [ 43, %57 ]
  call void @llvm.lifetime.start.p0(i64 2, ptr nonnull %12)
  store i16 %.052, ptr %12, align 2, !tbaa !24
  tail call void @_ZN6icu_7713UnicodeString7unBogusEv(ptr noundef nonnull align 8 dereferenceable(64) %6)
  %60 = getelementptr inbounds nuw i8, ptr %6, i64 8
  %61 = load i16, ptr %60, align 8, !tbaa !23
  %62 = icmp slt i16 %61, 0
  %63 = ashr i16 %61, 5
  %64 = sext i16 %63 to i32
  %65 = getelementptr inbounds nuw i8, ptr %6, i64 12
  %66 = load i32, ptr %65, align 4
  %67 = select i1 %62, i32 %66, i32 %64
  %68 = call noundef nonnull align 8 dereferenceable(64) ptr @_ZN6icu_7713UnicodeString9doReplaceEiiPKDsii(ptr noundef nonnull align 8 dereferenceable(64) %6, i32 noundef 0, i32 noundef %67, ptr noundef nonnull %12, i32 noundef 0, i32 noundef 1)
  call void @llvm.lifetime.end.p0(i64 2, ptr nonnull %12)
  br i1 %.not6470, label %._crit_edge80, label %.lr.ph79

.lr.ph79:                                         ; preds = %.loopexit
  %69 = add nuw nsw i32 %.053.lcssa, 1
  %wide.trip.count92 = zext nneg i32 %69 to i64
  br i1 %.not62, label %.lr.ph79.split, label %.lr.ph79.split.us

.lr.ph79.split.us:                                ; preds = %.lr.ph79, %.lr.ph79.split.us
  %indvars.iv84 = phi i64 [ %indvars.iv.next85, %.lr.ph79.split.us ], [ 0, %.lr.ph79 ]
  %70 = getelementptr inbounds nuw [3 x i32], ptr %14, i64 0, i64 %indvars.iv84
  %71 = load i32, ptr %70, align 4, !tbaa !12
  %72 = sdiv i32 %71, 10
  %73 = trunc i32 %72 to i16
  %74 = add i16 %73, 48
  call void @llvm.lifetime.start.p0(i64 2, ptr nonnull %10)
  store i16 %74, ptr %10, align 2, !tbaa !24
  %75 = call noundef nonnull align 8 dereferenceable(64) ptr @_ZN6icu_7713UnicodeString8doAppendEPKDsii(ptr noundef nonnull align 8 dereferenceable(64) %6, ptr noundef nonnull %10, i32 noundef 0, i32 noundef 1)
  call void @llvm.lifetime.end.p0(i64 2, ptr nonnull %10)
  %76 = srem i32 %71, 10
  %77 = trunc nsw i32 %76 to i16
  %78 = add nsw i16 %77, 48
  call void @llvm.lifetime.start.p0(i64 2, ptr nonnull %9)
  store i16 %78, ptr %9, align 2, !tbaa !24
  %79 = call noundef nonnull align 8 dereferenceable(64) ptr @_ZN6icu_7713UnicodeString8doAppendEPKDsii(ptr noundef nonnull align 8 dereferenceable(64) %6, ptr noundef nonnull %9, i32 noundef 0, i32 noundef 1)
  call void @llvm.lifetime.end.p0(i64 2, ptr nonnull %9)
  %indvars.iv.next85 = add nuw nsw i64 %indvars.iv84, 1
  %exitcond88.not = icmp eq i64 %indvars.iv.next85, %wide.trip.count92
  br i1 %exitcond88.not, label %._crit_edge80, label %.lr.ph79.split.us, !llvm.loop !92

._crit_edge80:                                    ; preds = %.lr.ph79.split.us, %82, %.loopexit
  call void @llvm.lifetime.end.p0(i64 12, ptr nonnull %14) #22
  br label %93

.lr.ph79.split:                                   ; preds = %.lr.ph79, %82
  %indvars.iv89 = phi i64 [ %indvars.iv.next90, %82 ], [ 0, %.lr.ph79 ]
  %.not = icmp eq i64 %indvars.iv89, 0
  br i1 %.not, label %82, label %80

80:                                               ; preds = %.lr.ph79.split
  call void @llvm.lifetime.start.p0(i64 2, ptr nonnull %11)
  store i16 58, ptr %11, align 2, !tbaa !24
  %81 = call noundef nonnull align 8 dereferenceable(64) ptr @_ZN6icu_7713UnicodeString8doAppendEPKDsii(ptr noundef nonnull align 8 dereferenceable(64) %6, ptr noundef nonnull %11, i32 noundef 0, i32 noundef 1)
  call void @llvm.lifetime.end.p0(i64 2, ptr nonnull %11)
  br label %82

82:                                               ; preds = %80, %.lr.ph79.split
  %83 = getelementptr inbounds nuw [3 x i32], ptr %14, i64 0, i64 %indvars.iv89
  %84 = load i32, ptr %83, align 4, !tbaa !12
  %85 = sdiv i32 %84, 10
  %86 = trunc i32 %85 to i16
  %87 = add i16 %86, 48
  call void @llvm.lifetime.start.p0(i64 2, ptr nonnull %10)
  store i16 %87, ptr %10, align 2, !tbaa !24
  %88 = call noundef nonnull align 8 dereferenceable(64) ptr @_ZN6icu_7713UnicodeString8doAppendEPKDsii(ptr noundef nonnull align 8 dereferenceable(64) %6, ptr noundef nonnull %10, i32 noundef 0, i32 noundef 1)
  call void @llvm.lifetime.end.p0(i64 2, ptr nonnull %10)
  %89 = srem i32 %84, 10
  %90 = trunc nsw i32 %89 to i16
  %91 = add nsw i16 %90, 48
  call void @llvm.lifetime.start.p0(i64 2, ptr nonnull %9)
  store i16 %91, ptr %9, align 2, !tbaa !24
  %92 = call noundef nonnull align 8 dereferenceable(64) ptr @_ZN6icu_7713UnicodeString8doAppendEPKDsii(ptr noundef nonnull align 8 dereferenceable(64) %6, ptr noundef nonnull %9, i32 noundef 0, i32 noundef 1)
  call void @llvm.lifetime.end.p0(i64 2, ptr nonnull %9)
  %indvars.iv.next90 = add nuw nsw i64 %indvars.iv89, 1
  %exitcond93.not = icmp eq i64 %indvars.iv.next90, %wide.trip.count92
  br i1 %exitcond93.not, label %._crit_edge80, label %.lr.ph79.split, !llvm.loop !92

93:                                               ; preds = %26, %._crit_edge80, %39, %17
  ret ptr %6
}